target datalayout = "e-m:e-p270:32:32-p271:32:32-p272:64:64-i64:64-i128:128-f80:128-n8:16:32:64-S128"
target triple = "x86_64-pc-linux-gnu"

%struct.b2World = type { %struct.b2ArenaAllocator, %struct.b2BroadPhase, %struct.b2ConstraintGraph, %struct.b2IdPool, %struct.b2BodyArray, %struct.b2IdPool, %struct.b2SolverSetArray, %struct.b2IdPool, %struct.b2JointArray, %struct.b2IdPool, %struct.b2ContactArray, %struct.b2IdPool, %struct.b2IslandArray, %struct.b2IdPool, %struct.b2IdPool, %struct.b2ShapeArray, %struct.b2ChainShapeArray, %struct.b2SensorArray, %struct.b2TaskContextArray, %struct.b2SensorTaskContextArray, %struct.b2BodyMoveEventArray, %struct.b2SensorBeginTouchEventArray, %struct.b2ContactBeginTouchEventArray, [2 x %struct.b2SensorEndTouchEventArray], [2 x %struct.b2ContactEndTouchEventArray], i32, %struct.b2ContactHitEventArray, %struct.b2BitSet, %struct.b2BitSet, %struct.b2BitSet, i64, i32, %struct.b2Vec2, float, float, float, float, float, float, float, float, ptr, ptr, i16, %struct.b2Profile, ptr, ptr, ptr, ptr, i32, ptr, ptr, ptr, ptr, ptr, float, i32, i32, i16, i8, i8, i8, i8, i8, i8 }
%struct.b2ArenaAllocator = type { ptr, i32, i32, i32, i32, %struct.b2ArenaEntryArray }
%struct.b2ArenaEntryArray = type { ptr, i32, i32 }
%struct.b2BroadPhase = type { [3 x %struct.b2DynamicTree], i32, %struct.b2HashSet, %struct.b2IntArray, ptr, ptr, i32, %struct.b2AtomicInt, %struct.b2HashSet }
%struct.b2DynamicTree = type { ptr, i32, i32, i32, i32, i32, ptr, ptr, ptr, ptr, i32 }
%struct.b2IntArray = type { ptr, i32, i32 }
%struct.b2AtomicInt = type { i32 }
%struct.b2HashSet = type { ptr, i32, i32 }
%struct.b2ConstraintGraph = type { [12 x %struct.b2GraphColor] }
%struct.b2GraphColor = type { %struct.b2BitSet, %struct.b2ContactSimArray, %struct.b2JointSimArray, %union.anon }
%struct.b2ContactSimArray = type { ptr, i32, i32 }
%struct.b2JointSimArray = type { ptr, i32, i32 }
%union.anon = type { ptr }
%struct.b2BodyArray = type { ptr, i32, i32 }
%struct.b2SolverSetArray = type { ptr, i32, i32 }
%struct.b2JointArray = type { ptr, i32, i32 }
%struct.b2ContactArray = type { ptr, i32, i32 }
%struct.b2IslandArray = type { ptr, i32, i32 }
%struct.b2IdPool = type { %struct.b2IntArray, i32 }
%struct.b2ShapeArray = type { ptr, i32, i32 }
%struct.b2ChainShapeArray = type { ptr, i32, i32 }
%struct.b2SensorArray = type { ptr, i32, i32 }
%struct.b2TaskContextArray = type { ptr, i32, i32 }
%struct.b2SensorTaskContextArray = type { ptr, i32, i32 }
%struct.b2BodyMoveEventArray = type { ptr, i32, i32 }
%struct.b2SensorBeginTouchEventArray = type { ptr, i32, i32 }
%struct.b2ContactBeginTouchEventArray = type { ptr, i32, i32 }
%struct.b2SensorEndTouchEventArray = type { ptr, i32, i32 }
%struct.b2ContactEndTouchEventArray = type { ptr, i32, i32 }
%struct.b2ContactHitEventArray = type { ptr, i32, i32 }
%struct.b2BitSet = type { ptr, i32, i32 }
%struct.b2Vec2 = type { float, float }
%struct.b2Profile = type { float, float, float, float, float, float, float, float, float, float, float, float, float, float, float, float, float, float, float, float, float, float }
%struct.b2WorldId = type { i16, i16 }
%struct.b2AABB = type { %struct.b2Vec2, %struct.b2Vec2 }
%struct.b2TreeStats = type { i32, i32 }
%struct.b2QueryFilter = type { i64, i64 }
%struct.WorldQueryContext = type { ptr, ptr, %struct.b2QueryFilter, ptr }

@b2_worlds = hidden global [128 x %struct.b2World] zeroinitializer, align 16

; Function Attrs: nounwind uwtable
define hidden ptr @b2GetWorldFromId(i32 %0) #0 {
  %2 = alloca %struct.b2WorldId, align 2
  %3 = alloca ptr, align 8
  store i32 %0, ptr %2, align 2
  call void @llvm.lifetime.start.p0(i64 8, ptr %3) #10
  %4 = getelementptr inbounds nuw %struct.b2WorldId, ptr %2, i32 0, i32 0
  %5 = load i16, ptr %4, align 2, !tbaa !44
  %6 = zext i16 %5 to i32
  %7 = sub nsw i32 %6, 1
  %8 = sext i32 %7 to i64
  %9 = getelementptr inbounds %struct.b2World, ptr @b2_worlds, i64 %8
  store ptr %9, ptr %3, align 8, !tbaa !47
  %10 = load ptr, ptr %3, align 8, !tbaa !47
  call void @llvm.lifetime.end.p0(i64 8, ptr %3) #10
  ret ptr %10
}

; Function Attrs: nounwind uwtable
define i64 @b2World_OverlapAABB(i32 %0, <2 x float> %1, <2 x float> %2, i64 %3, i64 %4, ptr noundef %5, ptr noundef %6) #6 {
  %8 = alloca %struct.b2TreeStats, align 4
  %9 = alloca %struct.b2WorldId, align 2
  %10 = alloca %struct.b2AABB, align 4
  %11 = alloca %struct.b2QueryFilter, align 8
  %12 = alloca ptr, align 8
  %13 = alloca ptr, align 8
  %14 = alloca ptr, align 8
  %15 = alloca i32, align 4
  %16 = alloca %struct.WorldQueryContext, align 8
  %17 = alloca i32, align 4
  %18 = alloca %struct.b2TreeStats, align 4
  store i32 %0, ptr %9, align 2
  %19 = getelementptr inbounds nuw { <2 x float>, <2 x float> }, ptr %10, i32 0, i32 0
  store <2 x float> %1, ptr %19, align 4
  %20 = getelementptr inbounds nuw { <2 x float>, <2 x float> }, ptr %10, i32 0, i32 1
  store <2 x float> %2, ptr %20, align 4
  %21 = getelementptr inbounds nuw { i64, i64 }, ptr %11, i32 0, i32 0
  store i64 %3, ptr %21, align 8
  %22 = getelementptr inbounds nuw { i64, i64 }, ptr %11, i32 0, i32 1
  store i64 %4, ptr %22, align 8
  store ptr %5, ptr %12, align 8, !tbaa !12
  store ptr %6, ptr %13, align 8, !tbaa !12
  call void @llvm.memset.p0.i64(ptr align 4 %8, i8 0, i64 8, i1 false)
  call void @llvm.lifetime.start.p0(i64 8, ptr %14) #10
  %23 = load i32, ptr %9, align 2
  %24 = call ptr @b2GetWorldFromId(i32 %23)
  store ptr %24, ptr %14, align 8, !tbaa !47
  %25 = load ptr, ptr %14, align 8, !tbaa !47
  %26 = getelementptr inbounds nuw %struct.b2World, ptr %25, i32 0, i32 60
  %27 = load i8, ptr %26, align 1, !tbaa !49, !range !90, !noundef !91
  %28 = trunc i8 %27 to i1
  br i1 %28, label %29, label %30

29:                                               ; preds = %7
  store i32 1, ptr %15, align 4
  br label %71

30:                                               ; preds = %7
  call void @llvm.lifetime.start.p0(i64 40, ptr %16) #10
  %31 = getelementptr inbounds nuw %struct.WorldQueryContext, ptr %16, i32 0, i32 0
  %32 = load ptr, ptr %14, align 8, !tbaa !47
  store ptr %32, ptr %31, align 8, !tbaa !502
  %33 = getelementptr inbounds nuw %struct.WorldQueryContext, ptr %16, i32 0, i32 1
  %34 = load ptr, ptr %12, align 8, !tbaa !12
  store ptr %34, ptr %33, align 8, !tbaa !505
  %35 = getelementptr inbounds nuw %struct.WorldQueryContext, ptr %16, i32 0, i32 2
  call void @llvm.memcpy.p0.p0.i64(ptr align 8 %35, ptr align 8 %11, i64 16, i1 false), !tbaa.struct !506
  %36 = getelementptr inbounds nuw %struct.WorldQueryContext, ptr %16, i32 0, i32 3
  %37 = load ptr, ptr %13, align 8, !tbaa !12
  store ptr %37, ptr %36, align 8, !tbaa !507
  call void @llvm.lifetime.start.p0(i64 4, ptr %17) #10
  store i32 0, ptr %17, align 4, !tbaa !3
  br label %38

38:                                               ; preds = %67, %30
  %39 = load i32, ptr %17, align 4, !tbaa !3
  %40 = icmp slt i32 %39, 3
  br i1 %40, label %42, label %41

41:                                               ; preds = %38
  store i32 2, ptr %15, align 4
  call void @llvm.lifetime.end.p0(i64 4, ptr %17) #10
  br label %70

42:                                               ; preds = %38
  call void @llvm.lifetime.start.p0(i64 8, ptr %18) #10
  %43 = load ptr, ptr %14, align 8, !tbaa !47
  %44 = getelementptr inbounds nuw %struct.b2World, ptr %43, i32 0, i32 1
  %45 = getelementptr inbounds nuw %struct.b2BroadPhase, ptr %44, i32 0, i32 0
  %46 = getelementptr inbounds [3 x %struct.b2DynamicTree], ptr %45, i64 0, i64 0
  %47 = load i32, ptr %17, align 4, !tbaa !3
  %48 = sext i32 %47 to i64
  %49 = getelementptr inbounds %struct.b2DynamicTree, ptr %46, i64 %48
  %50 = getelementptr inbounds nuw %struct.b2QueryFilter, ptr %11, i32 0, i32 1
  %51 = load i64, ptr %50, align 8, !tbaa !508
  %52 = getelementptr inbounds nuw { <2 x float>, <2 x float> }, ptr %10, i32 0, i32 0
  %53 = load <2 x float>, ptr %52, align 4
  %54 = getelementptr inbounds nuw { <2 x float>, <2 x float> }, ptr %10, i32 0, i32 1
  %55 = load <2 x float>, ptr %54, align 4
  %56 = call i64 @b2DynamicTree_Query(ptr noundef %49, <2 x float> %53, <2 x float> %55, i64 noundef %51, ptr noundef @TreeQueryCallback, ptr noundef %16)
  store i64 %56, ptr %18, align 4
  %57 = getelementptr inbounds nuw %struct.b2TreeStats, ptr %18, i32 0, i32 0
  %58 = load i32, ptr %57, align 4, !tbaa !509
  %59 = getelementptr inbounds nuw %struct.b2TreeStats, ptr %8, i32 0, i32 0
  %60 = load i32, ptr %59, align 4, !tbaa !509
  %61 = add nsw i32 %60, %58
  store i32 %61, ptr %59, align 4, !tbaa !509
  %62 = getelementptr inbounds nuw %struct.b2TreeStats, ptr %18, i32 0, i32 1
  %63 = load i32, ptr %62, align 4, !tbaa !511
  %64 = getelementptr inbounds nuw %struct.b2TreeStats, ptr %8, i32 0, i32 1
  %65 = load i32, ptr %64, align 4, !tbaa !511
  %66 = add nsw i32 %65, %63
  store i32 %66, ptr %64, align 4, !tbaa !511
  call void @llvm.lifetime.end.p0(i64 8, ptr %18) #10
  br label %67

67:                                               ; preds = %42
  %68 = load i32, ptr %17, align 4, !tbaa !3
  %69 = add nsw i32 %68, 1
  store i32 %69, ptr %17, align 4, !tbaa !3
  br label %38, !llvm.loop !512

70:                                               ; preds = %41
  store i32 1, ptr %15, align 4
  call void @llvm.lifetime.end.p0(i64 40, ptr %16) #10
  br label %71

71:                                               ; preds = %70, %29
  call void @llvm.lifetime.end.p0(i64 8, ptr %14) #10
  %72 = load i64, ptr %8, align 4
  ret i64 %72
}