; Function Attrs: nounwind uwtable
define i64 @b2World_OverlapAABB(i32 %0, <2 x float> %1, <2 x float> %2, i64 %3, i64 %4, ptr noundef %5, ptr noundef %6) local_unnamed_addr #8 {
  %8 = alloca %struct.WorldQueryContext, align 8
  %9 = and i32 %0, 65535
  %10 = zext nneg i32 %9 to i64
  %11 = getelementptr %struct.b2World, ptr @b2_worlds, i64 %10
  %12 = getelementptr i8, ptr %11, i64 -9
  %13 = load i8, ptr %12, align 1, !tbaa !35, !range !77, !noundef !78
  %14 = trunc nuw i8 %13 to i1
  br i1 %14, label %31, label %15

15:                                               ; preds = %7
  %16 = getelementptr i8, ptr %11, i64 -1792
  call void @llvm.lifetime.start.p0(i64 40, ptr nonnull %8) #22
  store ptr %16, ptr %8, align 8, !tbaa !412
  %17 = getelementptr inbounds nuw i8, ptr %8, i64 8
  store ptr %5, ptr %17, align 8, !tbaa !415
  %18 = getelementptr inbounds nuw i8, ptr %8, i64 16
  store i64 %3, ptr %18, align 8, !tbaa !227
  %.sroa.2.0..sroa_idx = getelementptr inbounds nuw i8, ptr %8, i64 24
  store i64 %4, ptr %.sroa.2.0..sroa_idx, align 8, !tbaa !227
  %19 = getelementptr inbounds nuw i8, ptr %8, i64 32
  store ptr %6, ptr %19, align 8, !tbaa !416
  %20 = getelementptr i8, ptr %11, i64 -1752
  br label %26

21:                                               ; preds = %26
  call void @llvm.lifetime.end.p0(i64 40, ptr nonnull %8) #22
  %22 = zext i32 %30 to i64
  %23 = shl nuw i64 %22, 32
  %24 = zext i32 %29 to i64
  %25 = or disjoint i64 %23, %24
  br label %31

26:                                               ; preds = %15, %26
  %indvars.iv = phi i64 [ 0, %15 ], [ %indvars.iv.next, %26 ]
  %.sroa.011.118 = phi i32 [ 0, %15 ], [ %29, %26 ]
  %.sroa.413.117 = phi i32 [ 0, %15 ], [ %30, %26 ]
  %27 = getelementptr inbounds nuw %struct.b2DynamicTree, ptr %20, i64 %indvars.iv
  %28 = call i64 @b2DynamicTree_Query(ptr noundef nonnull %27, <2 x float> %1, <2 x float> %2, i64 noundef %4, ptr noundef nonnull @TreeQueryCallback, ptr noundef nonnull %8) #22
  %.sroa.0.0.extract.trunc = trunc i64 %28 to i32
  %.sroa.4.0.extract.shift = lshr i64 %28, 32
  %.sroa.4.0.extract.trunc = trunc nuw i64 %.sroa.4.0.extract.shift to i32
  %29 = add nsw i32 %.sroa.011.118, %.sroa.0.0.extract.trunc
  %30 = add nsw i32 %.sroa.413.117, %.sroa.4.0.extract.trunc
  %indvars.iv.next = add nuw nsw i64 %indvars.iv, 1
  %exitcond.not = icmp eq i64 %indvars.iv.next, 3
  br i1 %exitcond.not, label %21, label %26, !llvm.loop !417

31:                                               ; preds = %7, %21
  %.sroa.011.0.insert.insert = phi i64 [ %25, %21 ], [ 0, %7 ]
  ret i64 %.sroa.011.0.insert.insert
}